; Function Attrs: nounwind uwtable
define dso_local range(i32 0, 2) i32 @jq_yylex_init_extra(i32 noundef %0, ptr noundef captures(address_is_null) %1) local_unnamed_addr #0 {
  %3 = icmp eq ptr %1, null
  br i1 %3, label %4, label %6

4:                                                ; preds = %2
  %5 = tail call ptr @__errno_location() #19
  store i32 22, ptr %5, align 4, !tbaa !60
  br label %18

6:                                                ; preds = %2
  %7 = tail call ptr @jv_mem_alloc(i64 noundef 160) #17
  store ptr %7, ptr %1, align 8, !tbaa !72
  %8 = icmp eq ptr %7, null
  br i1 %8, label %9, label %11

9:                                                ; preds = %6
  %10 = tail call ptr @__errno_location() #19
  store i32 12, ptr %10, align 4, !tbaa !60
  br label %18

11:                                               ; preds = %6
  tail call void @llvm.memset.p0.i64(ptr noundef nonnull align 1 dereferenceable(160) %7, i8 0, i64 160, i1 false)
  %12 = load ptr, ptr %1, align 8, !tbaa !72
  store i32 %0, ptr %12, align 8, !tbaa !47
  %13 = getelementptr inbounds nuw i8, ptr %12, i64 64
  %14 = getelementptr inbounds nuw i8, ptr %12, i64 84
  store i32 0, ptr %14, align 4, !tbaa !63
  %15 = getelementptr inbounds nuw i8, ptr %12, i64 88
  store i32 0, ptr %15, align 8, !tbaa !64
  %16 = getelementptr inbounds nuw i8, ptr %12, i64 96
  store ptr null, ptr %16, align 8, !tbaa !65
  %17 = getelementptr inbounds nuw i8, ptr %12, i64 8
  tail call void @llvm.memset.p0.i64(ptr noundef nonnull align 8 dereferenceable(40) %17, i8 0, i64 40, i1 false)
  tail call void @llvm.memset.p0.i64(ptr noundef nonnull align 8 dereferenceable(16) %13, i8 0, i64 16, i1 false)
  br label %18

18:                                               ; preds = %11, %9, %4
  %.0 = phi i32 [ 1, %4 ], [ 1, %9 ], [ 0, %11 ]
  ret i32 %.0
}